target datalayout = "e-m:e-p270:32:32-p271:32:32-p272:64:64-i64:64-i128:128-f80:128-n8:16:32:64-S128"
target triple = "x86_64-pc-linux-gnu"

%struct.hwloc_topology = type { i32, i32, i32, ptr, ptr, i64, [20 x i32], [20 x i32], i64, i64, i32, ptr, i64, ptr, i64, [6 x %struct.hwloc_special_level_s], ptr, ptr, %struct.hwloc_binding_hooks, %struct.hwloc_topology_support, %struct.hwloc_infos_s, ptr, ptr, i32, ptr, ptr, i32, i32, ptr, i32, i32, ptr, i32, i32, i32, [5 x float], i32, ptr, ptr, i32, i32, ptr, i32, %struct.hwloc_numanode_attr_s, i32, i32, ptr, i64, i32, ptr, ptr, ptr }
%struct.hwloc_special_level_s = type { i32, ptr, ptr, ptr }
%struct.hwloc_binding_hooks = type { ptr, ptr, ptr, ptr, ptr, ptr, ptr, ptr, ptr, ptr, ptr, ptr, ptr, ptr, ptr, ptr, ptr, ptr, ptr, ptr, ptr, ptr, ptr, ptr }
%struct.hwloc_topology_support = type { ptr, ptr, ptr, ptr }
%struct.hwloc_infos_s = type { ptr, i32, i32 }
%struct.hwloc_numanode_attr_s = type { i64, i32, ptr }
%struct.hwloc_obj = type { i32, ptr, i32, ptr, i64, ptr, i32, i32, ptr, ptr, ptr, i32, ptr, ptr, i32, ptr, ptr, ptr, i32, i32, ptr, i32, ptr, i32, ptr, ptr, ptr, ptr, ptr, %struct.hwloc_infos_s, ptr, i64 }

; Function Attrs: nounwind willreturn memory(read) uwtable
define i32 @hwloc_get_depth_type(ptr noundef %0, i32 noundef %1) #1 {
  %3 = alloca i32, align 4
  %4 = alloca ptr, align 8
  %5 = alloca i32, align 4
  store ptr %0, ptr %4, align 8, !tbaa !3
  store i32 %1, ptr %5, align 4, !tbaa !8
  %6 = load i32, ptr %5, align 4, !tbaa !8
  %7 = load ptr, ptr %4, align 8, !tbaa !3
  %8 = getelementptr inbounds nuw %struct.hwloc_topology, ptr %7, i32 0, i32 1
  %9 = load i32, ptr %8, align 4, !tbaa !10
  %10 = icmp uge i32 %6, %9
  br i1 %10, label %11, label %20

11:                                               ; preds = %2
  %12 = load i32, ptr %5, align 4, !tbaa !8
  switch i32 %12, label %19 [
    i32 -3, label %13
    i32 -4, label %14
    i32 -5, label %15
    i32 -6, label %16
    i32 -7, label %17
    i32 -8, label %18
  ]

13:                                               ; preds = %11
  store i32 14, ptr %3, align 4
  br label %32

14:                                               ; preds = %11
  store i32 16, ptr %3, align 4
  br label %32

15:                                               ; preds = %11
  store i32 17, ptr %3, align 4
  br label %32

16:                                               ; preds = %11
  store i32 18, ptr %3, align 4
  br label %32

17:                                               ; preds = %11
  store i32 19, ptr %3, align 4
  br label %32

18:                                               ; preds = %11
  store i32 15, ptr %3, align 4
  br label %32

19:                                               ; preds = %11
  store i32 -1, ptr %3, align 4
  br label %32

20:                                               ; preds = %2
  %21 = load ptr, ptr %4, align 8, !tbaa !3
  %22 = getelementptr inbounds nuw %struct.hwloc_topology, ptr %21, i32 0, i32 4
  %23 = load ptr, ptr %22, align 8, !tbaa !34
  %24 = load i32, ptr %5, align 4, !tbaa !8
  %25 = sext i32 %24 to i64
  %26 = getelementptr inbounds ptr, ptr %23, i64 %25
  %27 = load ptr, ptr %26, align 8, !tbaa !35
  %28 = getelementptr inbounds ptr, ptr %27, i64 0
  %29 = load ptr, ptr %28, align 8, !tbaa !37
  %30 = getelementptr inbounds nuw %struct.hwloc_obj, ptr %29, i32 0, i32 0
  %31 = load i32, ptr %30, align 8, !tbaa !39
  store i32 %31, ptr %3, align 4
  br label %32

32:                                               ; preds = %20, %19, %18, %17, %16, %15, %14, %13
  %33 = load i32, ptr %3, align 4
  ret i32 %33
}