; Function Attrs: mustprogress nofree norecurse nosync nounwind willreturn memory(read, inaccessiblemem: none) uwtable
define i32 @hwloc_get_depth_type(ptr noundef readonly captures(none) %0, i32 noundef %1) local_unnamed_addr #1 {
  %3 = getelementptr inbounds nuw i8, ptr %0, i64 4
  %4 = load i32, ptr %3, align 4, !tbaa !7
  %.not = icmp ult i32 %1, %4
  br i1 %.not, label %7, label %5

5:                                                ; preds = %2
  %switch.tableidx = add i32 %1, 8
  %6 = icmp ult i32 %switch.tableidx, 6
  br i1 %6, label %switch.lookup, label %16

7:                                                ; preds = %2
  %8 = getelementptr inbounds nuw i8, ptr %0, i64 24
  %9 = load ptr, ptr %8, align 8, !tbaa !32
  %10 = sext i32 %1 to i64
  %11 = getelementptr inbounds ptr, ptr %9, i64 %10
  %12 = load ptr, ptr %11, align 8, !tbaa !33
  %13 = load ptr, ptr %12, align 8, !tbaa !35
  %14 = load i32, ptr %13, align 8, !tbaa !37
  br label %16

switch.lookup:                                    ; preds = %5
  %15 = zext nneg i32 %switch.tableidx to i64
  %switch.gep = getelementptr inbounds nuw [6 x i32], ptr @switch.table.hwloc_get_depth_type, i64 0, i64 %15
  %switch.load = load i32, ptr %switch.gep, align 4
  br label %16

16:                                               ; preds = %5, %switch.lookup, %7
  %.0 = phi i32 [ %14, %7 ], [ %switch.load, %switch.lookup ], [ -1, %5 ]
  ret i32 %.0
}